target datalayout = "e-m:e-p270:32:32-p271:32:32-p272:64:64-i64:64-i128:128-f80:128-n8:16:32:64-S128"
target triple = "x86_64-pc-linux-gnu"

%struct._zend_blacklist = type { ptr, i32, i32, ptr }
%struct._zend_regexp_list = type { ptr, ptr }

; Function Attrs: nounwind uwtable
define hidden zeroext i1 @zend_accel_blacklist_is_blacklisted(ptr noundef %0, ptr noundef %1, i64 noundef %2) #0 {
  %4 = alloca i1, align 1
  %5 = alloca ptr, align 8
  %6 = alloca ptr, align 8
  %7 = alloca i64, align 8
  %8 = alloca i32, align 4
  %9 = alloca ptr, align 8
  %10 = alloca ptr, align 8
  %11 = alloca ptr, align 8
  %12 = alloca i32, align 4
  store ptr %0, ptr %5, align 8
  store ptr %1, ptr %6, align 8
  store i64 %2, ptr %7, align 8
  store i32 0, ptr %8, align 4
  %13 = load ptr, ptr %5, align 8
  %14 = getelementptr inbounds %struct._zend_blacklist, ptr %13, i32 0, i32 3
  %15 = load ptr, ptr %14, align 8
  store ptr %15, ptr %9, align 8
  %16 = call ptr @php_pcre_mctx()
  store ptr %16, ptr %10, align 8
  %17 = load ptr, ptr %9, align 8
  %18 = icmp eq ptr %17, null
  br i1 %18, label %19, label %20

19:                                               ; preds = %3
  store i1 false, ptr %4, align 1
  br label %53

20:                                               ; preds = %3
  br label %21

21:                                               ; preds = %45, %31, %20
  %22 = load ptr, ptr %9, align 8
  %23 = icmp ne ptr %22, null
  br i1 %23, label %24, label %50

24:                                               ; preds = %21
  %25 = load ptr, ptr %9, align 8
  %26 = getelementptr inbounds %struct._zend_regexp_list, ptr %25, i32 0, i32 0
  %27 = load ptr, ptr %26, align 8
  %28 = call ptr @php_pcre_create_match_data(i32 noundef 0, ptr noundef %27)
  store ptr %28, ptr %11, align 8
  %29 = load ptr, ptr %11, align 8
  %30 = icmp ne ptr %29, null
  br i1 %30, label %32, label %31

31:                                               ; preds = %24
  br label %21

32:                                               ; preds = %24
  %33 = load ptr, ptr %9, align 8
  %34 = getelementptr inbounds %struct._zend_regexp_list, ptr %33, i32 0, i32 0
  %35 = load ptr, ptr %34, align 8
  %36 = load ptr, ptr %6, align 8
  %37 = load i64, ptr %7, align 8
  %38 = load ptr, ptr %11, align 8
  %39 = load ptr, ptr %10, align 8
  %40 = call i32 @php_pcre2_match(ptr noundef %35, ptr noundef %36, i64 noundef %37, i64 noundef 0, i32 noundef 0, ptr noundef %38, ptr noundef %39)
  store i32 %40, ptr %12, align 4
  %41 = load i32, ptr %12, align 4
  %42 = icmp sge i32 %41, 0
  br i1 %42, label %43, label %45

43:                                               ; preds = %32
  store i32 1, ptr %8, align 4
  %44 = load ptr, ptr %11, align 8
  call void @php_pcre_free_match_data(ptr noundef %44)
  br label %50

45:                                               ; preds = %32
  %46 = load ptr, ptr %11, align 8
  call void @php_pcre_free_match_data(ptr noundef %46)
  %47 = load ptr, ptr %9, align 8
  %48 = getelementptr inbounds %struct._zend_regexp_list, ptr %47, i32 0, i32 1
  %49 = load ptr, ptr %48, align 8
  store ptr %49, ptr %9, align 8
  br label %21

50:                                               ; preds = %43, %21
  %51 = load i32, ptr %8, align 4
  %52 = icmp ne i32 %51, 0
  store i1 %52, ptr %4, align 1
  br label %53

53:                                               ; preds = %50, %19
  %54 = load i1, ptr %4, align 1
  ret i1 %54
}