; Function Attrs: nounwind uwtable
define hidden noundef zeroext i1 @zend_accel_blacklist_is_blacklisted(ptr nocapture noundef readonly %0, ptr noundef %1, i64 noundef %2) local_unnamed_addr #0 {
  %4 = getelementptr inbounds i8, ptr %0, i64 16
  %5 = load ptr, ptr %4, align 8
  %6 = tail call ptr @php_pcre_mctx() #13
  %7 = icmp eq ptr %5, null
  br i1 %7, label %.loopexit, label %.outer.split

.outer.split:                                     ; preds = %3, %.outer
  %.016.ph20 = phi ptr [ %16, %.outer ], [ %5, %3 ]
  br label %8

8:                                                ; preds = %.outer.split, %8
  %9 = load ptr, ptr %.016.ph20, align 8
  %10 = tail call ptr @php_pcre_create_match_data(i32 noundef 0, ptr noundef %9) #13
  %.not19 = icmp eq ptr %10, null
  br i1 %.not19, label %8, label %11

11:                                               ; preds = %8
  %12 = load ptr, ptr %.016.ph20, align 8
  %13 = tail call i32 @php_pcre2_match(ptr noundef %12, ptr noundef %1, i64 noundef %2, i64 noundef 0, i32 noundef 0, ptr noundef nonnull %10, ptr noundef %6) #13
  %14 = icmp sgt i32 %13, -1
  tail call void @php_pcre_free_match_data(ptr noundef nonnull %10) #13
  br i1 %14, label %.loopexit, label %.outer

.outer:                                           ; preds = %11
  %15 = getelementptr inbounds i8, ptr %.016.ph20, i64 8
  %16 = load ptr, ptr %15, align 8
  %.not.not = icmp eq ptr %16, null
  br i1 %.not.not, label %.loopexit, label %.outer.split

.loopexit:                                        ; preds = %.outer, %11, %3
  %.0 = phi i1 [ false, %3 ], [ %14, %11 ], [ %14, %.outer ]
  ret i1 %.0
}